target datalayout = "e-m:e-p270:32:32-p271:32:32-p272:64:64-i64:64-i128:128-f80:128-n8:16:32:64-S128"
target triple = "x86_64-pc-linux-gnu"

%union.pthread_mutex_t = type { %struct.__pthread_mutex_s }
%struct.__pthread_mutex_s = type { i32, i32, i32, i32, i32, i16, i16, %struct.__pthread_internal_list }
%struct.__pthread_internal_list = type { ptr, ptr }
%union.pthread_cond_t = type { %struct.__pthread_cond_s }
%struct.__pthread_cond_s = type { %union.__atomic_wide_counter, %union.__atomic_wide_counter, [2 x i32], [2 x i32], i32, i32, [2 x i32] }
%union.__atomic_wide_counter = type { i64 }

@plugin_type = dso_local constant [15 x i8] c"jobcomp/script\00", align 1
@thread_flag_mutex = internal global %union.pthread_mutex_t zeroinitializer, align 8
@.str.1 = private unnamed_addr constant [29 x i8] c"%s: pthread_mutex_lock(): %m\00", align 1
@comp_list = internal global ptr null, align 8
@.str.2 = private unnamed_addr constant [31 x i8] c"%s: pthread_mutex_unlock(): %m\00", align 1
@script_thread = internal global i64 0, align 8
@jobcomp_script = internal global ptr null, align 8
@comp_list_mutex = internal global %union.pthread_mutex_t zeroinitializer, align 8
@comp_list_cond = internal global %union.pthread_cond_t zeroinitializer, align 8
@.str.11 = private unnamed_addr constant [39 x i8] c"%s:%d %s: pthread_cond_broadcast(): %m\00", align 1
@.str.12 = private unnamed_addr constant [17 x i8] c"jobcomp_script.c\00", align 1
@__func__.fini = private unnamed_addr constant [5 x i8] c"fini\00", align 1
@.str.13 = private unnamed_addr constant [51 x i8] c"%s: %s: Script Job Completion plugin shutting down\00", align 1
@agent_exit = internal global i32 0, align 4
@.str.14 = private unnamed_addr constant [23 x i8] c"%s: pthread_join(): %m\00", align 1

; Function Attrs: nounwind uwtable
define dso_local i32 @fini() #0 {
  %1 = alloca i32, align 4
  %2 = alloca i32, align 4
  %3 = alloca i32, align 4
  %4 = alloca i32, align 4
  %5 = alloca i32, align 4
  %6 = alloca i32, align 4
  %7 = alloca i32, align 4
  %8 = alloca i32, align 4
  br label %9

9:                                                ; preds = %0
  call void @llvm.lifetime.start.p0(i64 4, ptr %1) #7
  %10 = call i32 @pthread_mutex_lock(ptr noundef @thread_flag_mutex) #7
  store i32 %10, ptr %1, align 4
  %11 = load i32, ptr %1, align 4
  %12 = icmp ne i32 %11, 0
  br i1 %12, label %13, label %16

13:                                               ; preds = %9
  %14 = load i32, ptr %1, align 4
  %15 = call ptr @__errno_location() #8
  store i32 %14, ptr %15, align 4
  call void (ptr, ...) @slurm_fatal_abort(ptr noundef @.str.1, ptr noundef @__func__.fini) #9
  unreachable

16:                                               ; preds = %9
  call void @llvm.lifetime.end.p0(i64 4, ptr %1) #7
  br label %17

17:                                               ; preds = %16
  %18 = load i64, ptr @script_thread, align 8
  %19 = icmp ne i64 %18, 0
  br i1 %19, label %20, label %72

20:                                               ; preds = %17
  br label %21

21:                                               ; preds = %20
  br label %22

22:                                               ; preds = %21
  %23 = call i32 @slurm_get_log_level()
  %24 = icmp sge i32 %23, 4
  br i1 %24, label %25, label %26

25:                                               ; preds = %22
  call void (i32, ptr, ...) @slurm_log_var(i32 noundef 4, ptr noundef @.str.13, ptr noundef @plugin_type, ptr noundef @__func__.fini)
  br label %26

26:                                               ; preds = %25, %22
  br label %27

27:                                               ; preds = %26
  br label %28

28:                                               ; preds = %27
  store i32 1, ptr @agent_exit, align 4
  br label %29

29:                                               ; preds = %28
  call void @llvm.lifetime.start.p0(i64 4, ptr %2) #7
  %30 = call i32 @pthread_mutex_lock(ptr noundef @comp_list_mutex) #7
  store i32 %30, ptr %2, align 4
  %31 = load i32, ptr %2, align 4
  %32 = icmp ne i32 %31, 0
  br i1 %32, label %33, label %36

33:                                               ; preds = %29
  %34 = load i32, ptr %2, align 4
  %35 = call ptr @__errno_location() #8
  store i32 %34, ptr %35, align 4
  call void (ptr, ...) @slurm_fatal_abort(ptr noundef @.str.1, ptr noundef @__func__.fini) #9
  unreachable

36:                                               ; preds = %29
  call void @llvm.lifetime.end.p0(i64 4, ptr %2) #7
  br label %37

37:                                               ; preds = %36
  br label %38

38:                                               ; preds = %37
  call void @llvm.lifetime.start.p0(i64 4, ptr %3) #7
  %39 = call i32 @pthread_cond_broadcast(ptr noundef @comp_list_cond) #7
  store i32 %39, ptr %3, align 4
  %40 = load i32, ptr %3, align 4
  %41 = icmp ne i32 %40, 0
  br i1 %41, label %42, label %46

42:                                               ; preds = %38
  %43 = load i32, ptr %3, align 4
  %44 = call ptr @__errno_location() #8
  store i32 %43, ptr %44, align 4
  %45 = call i32 (ptr, ...) @slurm_error(ptr noundef @.str.11, ptr noundef @.str.12, i32 noundef 662, ptr noundef @__func__.fini)
  br label %46

46:                                               ; preds = %42, %38
  call void @llvm.lifetime.end.p0(i64 4, ptr %3) #7
  br label %47

47:                                               ; preds = %46
  br label %48

48:                                               ; preds = %47
  call void @llvm.lifetime.start.p0(i64 4, ptr %4) #7
  %49 = call i32 @pthread_mutex_unlock(ptr noundef @comp_list_mutex) #7
  store i32 %49, ptr %4, align 4
  %50 = load i32, ptr %4, align 4
  %51 = icmp ne i32 %50, 0
  br i1 %51, label %52, label %55

52:                                               ; preds = %48
  %53 = load i32, ptr %4, align 4
  %54 = call ptr @__errno_location() #8
  store i32 %53, ptr %54, align 4
  call void (ptr, ...) @slurm_fatal_abort(ptr noundef @.str.2, ptr noundef @__func__.fini) #9
  unreachable

55:                                               ; preds = %48
  call void @llvm.lifetime.end.p0(i64 4, ptr %4) #7
  br label %56

56:                                               ; preds = %55
  br label %57

57:                                               ; preds = %56
  call void @llvm.lifetime.start.p0(i64 4, ptr %5) #7
  store i32 0, ptr %5, align 4
  %58 = load i64, ptr @script_thread, align 8
  %59 = icmp ne i64 %58, 0
  br i1 %59, label %60, label %63

60:                                               ; preds = %57
  %61 = load i64, ptr @script_thread, align 8
  %62 = call i32 @pthread_join(i64 noundef %61, ptr noundef null)
  store i32 %62, ptr %5, align 4
  store i64 0, ptr @script_thread, align 8
  br label %63

63:                                               ; preds = %60, %57
  %64 = load i32, ptr %5, align 4
  %65 = icmp ne i32 %64, 0
  br i1 %65, label %66, label %70

66:                                               ; preds = %63
  %67 = load i32, ptr %5, align 4
  %68 = call ptr @__errno_location() #8
  store i32 %67, ptr %68, align 4
  %69 = call i32 (ptr, ...) @slurm_error(ptr noundef @.str.14, ptr noundef @__func__.fini)
  br label %70

70:                                               ; preds = %66, %63
  call void @llvm.lifetime.end.p0(i64 4, ptr %5) #7
  br label %71

71:                                               ; preds = %70
  br label %72

72:                                               ; preds = %71, %17
  br label %73

73:                                               ; preds = %72
  call void @llvm.lifetime.start.p0(i64 4, ptr %6) #7
  %74 = call i32 @pthread_mutex_unlock(ptr noundef @thread_flag_mutex) #7
  store i32 %74, ptr %6, align 4
  %75 = load i32, ptr %6, align 4
  %76 = icmp ne i32 %75, 0
  br i1 %76, label %77, label %80

77:                                               ; preds = %73
  %78 = load i32, ptr %6, align 4
  %79 = call ptr @__errno_location() #8
  store i32 %78, ptr %79, align 4
  call void (ptr, ...) @slurm_fatal_abort(ptr noundef @.str.2, ptr noundef @__func__.fini) #9
  unreachable

80:                                               ; preds = %73
  call void @llvm.lifetime.end.p0(i64 4, ptr %6) #7
  br label %81

81:                                               ; preds = %80
  call void @slurm_xfree(ptr noundef @jobcomp_script)
  br label %82

82:                                               ; preds = %81
  call void @llvm.lifetime.start.p0(i64 4, ptr %7) #7
  %83 = call i32 @pthread_mutex_lock(ptr noundef @comp_list_mutex) #7
  store i32 %83, ptr %7, align 4
  %84 = load i32, ptr %7, align 4
  %85 = icmp ne i32 %84, 0
  br i1 %85, label %86, label %89

86:                                               ; preds = %82
  %87 = load i32, ptr %7, align 4
  %88 = call ptr @__errno_location() #8
  store i32 %87, ptr %88, align 4
  call void (ptr, ...) @slurm_fatal_abort(ptr noundef @.str.1, ptr noundef @__func__.fini) #9
  unreachable

89:                                               ; preds = %82
  call void @llvm.lifetime.end.p0(i64 4, ptr %7) #7
  br label %90

90:                                               ; preds = %89
  br label %91

91:                                               ; preds = %90
  %92 = load ptr, ptr @comp_list, align 8
  %93 = icmp ne ptr %92, null
  br i1 %93, label %94, label %96

94:                                               ; preds = %91
  %95 = load ptr, ptr @comp_list, align 8
  call void @slurm_list_destroy(ptr noundef %95)
  br label %96

96:                                               ; preds = %94, %91
  store ptr null, ptr @comp_list, align 8
  br label %97

97:                                               ; preds = %96
  br label %98

98:                                               ; preds = %97
  call void @llvm.lifetime.start.p0(i64 4, ptr %8) #7
  %99 = call i32 @pthread_mutex_unlock(ptr noundef @comp_list_mutex) #7
  store i32 %99, ptr %8, align 4
  %100 = load i32, ptr %8, align 4
  %101 = icmp ne i32 %100, 0
  br i1 %101, label %102, label %105

102:                                              ; preds = %98
  %103 = load i32, ptr %8, align 4
  %104 = call ptr @__errno_location() #8
  store i32 %103, ptr %104, align 4
  call void (ptr, ...) @slurm_fatal_abort(ptr noundef @.str.2, ptr noundef @__func__.fini) #9
  unreachable

105:                                              ; preds = %98
  call void @llvm.lifetime.end.p0(i64 4, ptr %8) #7
  br label %106

106:                                              ; preds = %105
  ret i32 0
}