; Function Attrs: nounwind uwtable
define dso_local noundef i32 @fini() local_unnamed_addr #0 {
  %1 = tail call i32 @pthread_mutex_lock(ptr noundef nonnull @thread_flag_mutex) #10
  %.not = icmp eq i32 %1, 0
  br i1 %.not, label %4, label %2

2:                                                ; preds = %0
  %3 = tail call ptr @__errno_location() #11
  store i32 %1, ptr %3, align 4
  tail call void (ptr, ...) @slurm_fatal_abort(ptr noundef nonnull @.str.1, ptr noundef nonnull @__func__.fini) #12
  unreachable

4:                                                ; preds = %0
  %5 = load i64, ptr @script_thread, align 8
  %.not25 = icmp eq i64 %5, 0
  br i1 %.not25, label %.thread, label %6

6:                                                ; preds = %4
  %7 = tail call i32 @slurm_get_log_level() #10
  %8 = icmp sgt i32 %7, 3
  br i1 %8, label %9, label %10

9:                                                ; preds = %6
  tail call void (i32, ptr, ...) @slurm_log_var(i32 noundef 4, ptr noundef nonnull @.str.13, ptr noundef nonnull @plugin_type, ptr noundef nonnull @__func__.fini) #10
  br label %10

10:                                               ; preds = %9, %6
  store i1 true, ptr @agent_exit, align 4
  %11 = tail call i32 @pthread_mutex_lock(ptr noundef nonnull @comp_list_mutex) #10
  %.not26 = icmp eq i32 %11, 0
  br i1 %.not26, label %14, label %12

12:                                               ; preds = %10
  %13 = tail call ptr @__errno_location() #11
  store i32 %11, ptr %13, align 4
  tail call void (ptr, ...) @slurm_fatal_abort(ptr noundef nonnull @.str.1, ptr noundef nonnull @__func__.fini) #12
  unreachable

14:                                               ; preds = %10
  %15 = tail call i32 @pthread_cond_broadcast(ptr noundef nonnull @comp_list_cond) #10
  %.not27 = icmp eq i32 %15, 0
  br i1 %.not27, label %19, label %16

16:                                               ; preds = %14
  %17 = tail call ptr @__errno_location() #11
  store i32 %15, ptr %17, align 4
  %18 = tail call i32 (ptr, ...) @slurm_error(ptr noundef nonnull @.str.11, ptr noundef nonnull @.str.12, i32 noundef 662, ptr noundef nonnull @__func__.fini) #10
  br label %19

19:                                               ; preds = %16, %14
  %20 = tail call i32 @pthread_mutex_unlock(ptr noundef nonnull @comp_list_mutex) #10
  %.not28 = icmp eq i32 %20, 0
  br i1 %.not28, label %23, label %21

21:                                               ; preds = %19
  %22 = tail call ptr @__errno_location() #11
  store i32 %20, ptr %22, align 4
  tail call void (ptr, ...) @slurm_fatal_abort(ptr noundef nonnull @.str.2, ptr noundef nonnull @__func__.fini) #12
  unreachable

23:                                               ; preds = %19
  %24 = load i64, ptr @script_thread, align 8
  %.not29 = icmp eq i64 %24, 0
  br i1 %.not29, label %.thread, label %25

25:                                               ; preds = %23
  %26 = tail call i32 @pthread_join(i64 noundef %24, ptr noundef null) #10
  store i64 0, ptr @script_thread, align 8
  %.not30 = icmp eq i32 %26, 0
  br i1 %.not30, label %.thread, label %27

27:                                               ; preds = %25
  %28 = tail call ptr @__errno_location() #11
  store i32 %26, ptr %28, align 4
  %29 = tail call i32 (ptr, ...) @slurm_error(ptr noundef nonnull @.str.14, ptr noundef nonnull @__func__.fini) #10
  br label %.thread

.thread:                                          ; preds = %23, %25, %27, %4
  %30 = tail call i32 @pthread_mutex_unlock(ptr noundef nonnull @thread_flag_mutex) #10
  %.not31 = icmp eq i32 %30, 0
  br i1 %.not31, label %33, label %31

31:                                               ; preds = %.thread
  %32 = tail call ptr @__errno_location() #11
  store i32 %30, ptr %32, align 4
  tail call void (ptr, ...) @slurm_fatal_abort(ptr noundef nonnull @.str.2, ptr noundef nonnull @__func__.fini) #12
  unreachable

33:                                               ; preds = %.thread
  tail call void @slurm_xfree(ptr noundef nonnull @jobcomp_script) #10
  %34 = tail call i32 @pthread_mutex_lock(ptr noundef nonnull @comp_list_mutex) #10
  %.not32 = icmp eq i32 %34, 0
  br i1 %.not32, label %37, label %35

35:                                               ; preds = %33
  %36 = tail call ptr @__errno_location() #11
  store i32 %34, ptr %36, align 4
  tail call void (ptr, ...) @slurm_fatal_abort(ptr noundef nonnull @.str.1, ptr noundef nonnull @__func__.fini) #12
  unreachable

37:                                               ; preds = %33
  %38 = load ptr, ptr @comp_list, align 8
  %.not33 = icmp eq ptr %38, null
  br i1 %.not33, label %40, label %39

39:                                               ; preds = %37
  tail call void @slurm_list_destroy(ptr noundef nonnull %38) #10
  br label %40

40:                                               ; preds = %39, %37
  store ptr null, ptr @comp_list, align 8
  %41 = tail call i32 @pthread_mutex_unlock(ptr noundef nonnull @comp_list_mutex) #10
  %.not34 = icmp eq i32 %41, 0
  br i1 %.not34, label %44, label %42

42:                                               ; preds = %40
  %43 = tail call ptr @__errno_location() #11
  store i32 %41, ptr %43, align 4
  tail call void (ptr, ...) @slurm_fatal_abort(ptr noundef nonnull @.str.2, ptr noundef nonnull @__func__.fini) #12
  unreachable

44:                                               ; preds = %40
  ret i32 0
}